; Function Attrs: mustprogress uwtable
define hidden noundef ptr @_ZN6google8protobuf8internal12StringParserEPKcS3_PvPNS1_12ParseContextE(ptr noundef %0, ptr noundef returned %1, ptr noundef %2, ptr noundef readnone captures(none) %3) local_unnamed_addr #3 personality ptr @__gxx_personality_v0 {
  %5 = ptrtoint ptr %1 to i64
  %6 = ptrtoint ptr %0 to i64
  %7 = sub i64 %5, %6
  %8 = getelementptr inbounds nuw i8, ptr %2, i64 8
  %9 = load i64, ptr %8, align 8, !tbaa !34
  %10 = sub i64 4611686018427387903, %9
  %11 = icmp ult i64 %10, %7
  br i1 %11, label %12, label %_ZNSt7__cxx1112basic_stringIcSt11char_traitsIcESaIcEE6appendEPKcm.exit

12:                                               ; preds = %4
  tail call void @_ZSt20__throw_length_errorPKc(ptr noundef nonnull @.str.14) #17
  unreachable

_ZNSt7__cxx1112basic_stringIcSt11char_traitsIcESaIcEE6appendEPKcm.exit: ; preds = %4
  %13 = tail call noundef nonnull align 8 dereferenceable(32) ptr @_ZNSt7__cxx1112basic_stringIcSt11char_traitsIcESaIcEE9_M_appendEPKcm(ptr noundef nonnull align 8 dereferenceable(32) %2, ptr noundef %0, i64 noundef %7)
  ret ptr %1
}